target datalayout = "e-m:e-p270:32:32-p271:32:32-p272:64:64-i64:64-i128:128-f80:128-n8:16:32:64-S128"
target triple = "x86_64-pc-linux-gnu"

%struct.node_record = type { ptr, ptr, i16, i64, i64, ptr, ptr, ptr, i16, ptr, i16, i16, i32, i32, i64, ptr, i16, i16, ptr, ptr, ptr, ptr, ptr, i64, i64, ptr, ptr, ptr, ptr, i32, ptr, ptr, i64, i64, i32, ptr, i64, ptr, i32, i16, ptr, ptr, i32, ptr, i32, i8, ptr, i32, i16, i16, ptr, i16, i64, i16, i64, ptr, i64, i32, i16, i64, i16, ptr, i16, i64, ptr, i64, i16, i32, i16, ptr, ptr, ptr, i16, i32, i16, i16, i32, ptr, i16, i32 }
%struct.config_record_t = type { i16, i16, i16, i32, ptr, i16, ptr, ptr, i32, i64, ptr, ptr, i64, i16, i16, i32, i16, ptr, ptr, i32 }
%struct.slurm_node_registration_status_msg = type { ptr, i16, i16, i32, i8, ptr, ptr, i16, i64, ptr, ptr, ptr, ptr, ptr, ptr, i32, ptr, ptr, ptr, i32, ptr, i16, ptr, i64, i64, i32, ptr, i16, i16, i64, i32, i32, ptr }

@node_record_count = external global i32, align 4

; Function Attrs: nounwind uwtable
define internal void @_split_node_config(ptr noundef %0, ptr noundef %1) #0 {
  %3 = alloca ptr, align 8
  %4 = alloca ptr, align 8
  %5 = alloca ptr, align 8
  %6 = alloca ptr, align 8
  %7 = alloca i32, align 4
  store ptr %0, ptr %3, align 8
  store ptr %1, ptr %4, align 8
  call void @llvm.lifetime.start.p0(i64 8, ptr %5) #10
  call void @llvm.lifetime.start.p0(i64 8, ptr %6) #10
  %8 = load ptr, ptr %3, align 8
  %9 = icmp ne ptr %8, null
  br i1 %9, label %11, label %10

10:                                               ; preds = %2
  store i32 1, ptr %7, align 4
  br label %104

11:                                               ; preds = %2
  %12 = load ptr, ptr %3, align 8
  %13 = getelementptr inbounds nuw %struct.node_record, ptr %12, i32 0, i32 9
  %14 = load ptr, ptr %13, align 8
  store ptr %14, ptr %5, align 8
  %15 = load ptr, ptr %5, align 8
  %16 = icmp ne ptr %15, null
  br i1 %16, label %18, label %17

17:                                               ; preds = %11
  store i32 1, ptr %7, align 4
  br label %104

18:                                               ; preds = %11
  %19 = load ptr, ptr %5, align 8
  %20 = getelementptr inbounds nuw %struct.config_record_t, ptr %19, i32 0, i32 10
  %21 = load ptr, ptr %20, align 8
  %22 = call i32 @bit_set_count(ptr noundef %21)
  %23 = icmp sgt i32 %22, 1
  br i1 %23, label %24, label %93

24:                                               ; preds = %18
  %25 = load ptr, ptr %5, align 8
  %26 = getelementptr inbounds nuw %struct.config_record_t, ptr %25, i32 0, i32 10
  %27 = load ptr, ptr %26, align 8
  %28 = load ptr, ptr %3, align 8
  %29 = getelementptr inbounds nuw %struct.node_record, ptr %28, i32 0, i32 29
  %30 = load i32, ptr %29, align 8
  %31 = zext i32 %30 to i64
  %32 = call i32 @slurm_bit_test(ptr noundef %27, i64 noundef %31)
  %33 = icmp ne i32 %32, 0
  br i1 %33, label %34, label %93

34:                                               ; preds = %24
  %35 = call ptr @create_config_record()
  store ptr %35, ptr %6, align 8
  %36 = load ptr, ptr %6, align 8
  %37 = load ptr, ptr %5, align 8
  call void @llvm.memcpy.p0.p0.i64(ptr align 8 %36, ptr align 8 %37, i64 128, i1 false)
  %38 = load ptr, ptr %5, align 8
  %39 = getelementptr inbounds nuw %struct.config_record_t, ptr %38, i32 0, i32 4
  %40 = load ptr, ptr %39, align 8
  %41 = call ptr @xstrdup(ptr noundef %40)
  %42 = load ptr, ptr %6, align 8
  %43 = getelementptr inbounds nuw %struct.config_record_t, ptr %42, i32 0, i32 4
  store ptr %41, ptr %43, align 8
  %44 = load ptr, ptr %5, align 8
  %45 = getelementptr inbounds nuw %struct.config_record_t, ptr %44, i32 0, i32 6
  %46 = load ptr, ptr %45, align 8
  %47 = call ptr @xstrdup(ptr noundef %46)
  %48 = load ptr, ptr %6, align 8
  %49 = getelementptr inbounds nuw %struct.config_record_t, ptr %48, i32 0, i32 6
  store ptr %47, ptr %49, align 8
  %50 = load ptr, ptr %5, align 8
  %51 = getelementptr inbounds nuw %struct.config_record_t, ptr %50, i32 0, i32 7
  %52 = load ptr, ptr %51, align 8
  %53 = call ptr @xstrdup(ptr noundef %52)
  %54 = load ptr, ptr %6, align 8
  %55 = getelementptr inbounds nuw %struct.config_record_t, ptr %54, i32 0, i32 7
  store ptr %53, ptr %55, align 8
  %56 = load ptr, ptr %5, align 8
  %57 = getelementptr inbounds nuw %struct.config_record_t, ptr %56, i32 0, i32 10
  %58 = load ptr, ptr %57, align 8
  %59 = load ptr, ptr %3, align 8
  %60 = getelementptr inbounds nuw %struct.node_record, ptr %59, i32 0, i32 29
  %61 = load i32, ptr %60, align 8
  %62 = zext i32 %61 to i64
  call void @bit_clear(ptr noundef %58, i64 noundef %62)
  %63 = load ptr, ptr %5, align 8
  %64 = getelementptr inbounds nuw %struct.config_record_t, ptr %63, i32 0, i32 11
  call void @slurm_xfree(ptr noundef %64)
  %65 = load ptr, ptr %5, align 8
  %66 = getelementptr inbounds nuw %struct.config_record_t, ptr %65, i32 0, i32 10
  %67 = load ptr, ptr %66, align 8
  %68 = call ptr @bitmap2node_name(ptr noundef %67)
  %69 = load ptr, ptr %5, align 8
  %70 = getelementptr inbounds nuw %struct.config_record_t, ptr %69, i32 0, i32 11
  store ptr %68, ptr %70, align 8
  %71 = load i32, ptr @node_record_count, align 4
  %72 = sext i32 %71 to i64
  %73 = call ptr @bit_alloc(i64 noundef %72)
  %74 = load ptr, ptr %6, align 8
  %75 = getelementptr inbounds nuw %struct.config_record_t, ptr %74, i32 0, i32 10
  store ptr %73, ptr %75, align 8
  %76 = load ptr, ptr %6, align 8
  %77 = getelementptr inbounds nuw %struct.config_record_t, ptr %76, i32 0, i32 10
  %78 = load ptr, ptr %77, align 8
  %79 = load ptr, ptr %3, align 8
  %80 = getelementptr inbounds nuw %struct.node_record, ptr %79, i32 0, i32 29
  %81 = load i32, ptr %80, align 8
  %82 = zext i32 %81 to i64
  call void @bit_set(ptr noundef %78, i64 noundef %82)
  %83 = load ptr, ptr %3, align 8
  %84 = getelementptr inbounds nuw %struct.node_record, ptr %83, i32 0, i32 37
  %85 = load ptr, ptr %84, align 8
  %86 = call ptr @xstrdup(ptr noundef %85)
  %87 = load ptr, ptr %6, align 8
  %88 = getelementptr inbounds nuw %struct.config_record_t, ptr %87, i32 0, i32 11
  store ptr %86, ptr %88, align 8
  %89 = load ptr, ptr %6, align 8
  %90 = load ptr, ptr %3, align 8
  %91 = getelementptr inbounds nuw %struct.node_record, ptr %90, i32 0, i32 9
  store ptr %89, ptr %91, align 8
  %92 = load ptr, ptr %6, align 8
  store ptr %92, ptr %5, align 8
  br label %93

93:                                               ; preds = %34, %24, %18
  %94 = load ptr, ptr %4, align 8
  %95 = getelementptr inbounds nuw %struct.slurm_node_registration_status_msg, ptr %94, i32 0, i32 1
  %96 = load i16, ptr %95, align 8
  %97 = load ptr, ptr %5, align 8
  %98 = getelementptr inbounds nuw %struct.config_record_t, ptr %97, i32 0, i32 2
  store i16 %96, ptr %98, align 4
  %99 = load ptr, ptr %4, align 8
  %100 = getelementptr inbounds nuw %struct.slurm_node_registration_status_msg, ptr %99, i32 0, i32 27
  %101 = load i16, ptr %100, align 8
  %102 = load ptr, ptr %5, align 8
  %103 = getelementptr inbounds nuw %struct.config_record_t, ptr %102, i32 0, i32 16
  store i16 %101, ptr %103, align 8
  store i32 0, ptr %7, align 4
  br label %104

104:                                              ; preds = %93, %17, %10
  call void @llvm.lifetime.end.p0(i64 8, ptr %6) #10
  call void @llvm.lifetime.end.p0(i64 8, ptr %5) #10
  %105 = load i32, ptr %7, align 4
  switch i32 %105, label %107 [
    i32 0, label %106
    i32 1, label %106
  ]

106:                                              ; preds = %104, %104
  ret void

107:                                              ; preds = %104
  unreachable
}