; Function Attrs: nounwind uwtable
define internal fastcc void @_split_node_config(ptr noundef nonnull captures(none) %0, ptr noundef readonly captures(none) %1) unnamed_addr #0 {
  %3 = getelementptr inbounds nuw i8, ptr %0, i64 72
  %4 = load ptr, ptr %3, align 8
  %.not = icmp eq ptr %4, null
  br i1 %.not, label %53, label %5

5:                                                ; preds = %2
  %6 = getelementptr inbounds nuw i8, ptr %4, i64 64
  %7 = load ptr, ptr %6, align 8
  %8 = tail call i32 @bit_set_count(ptr noundef %7) #15
  %9 = icmp sgt i32 %8, 1
  br i1 %9, label %10, label %46

10:                                               ; preds = %5
  %11 = load ptr, ptr %6, align 8
  %12 = getelementptr inbounds nuw i8, ptr %0, i64 208
  %13 = load i32, ptr %12, align 8
  %14 = zext i32 %13 to i64
  %15 = tail call i32 @slurm_bit_test(ptr noundef %11, i64 noundef %14) #15
  %.not33 = icmp eq i32 %15, 0
  br i1 %.not33, label %46, label %16

16:                                               ; preds = %10
  %17 = tail call ptr @create_config_record() #15
  tail call void @llvm.memcpy.p0.p0.i64(ptr noundef nonnull align 8 dereferenceable(128) %17, ptr noundef nonnull align 8 dereferenceable(128) %4, i64 128, i1 false)
  %18 = getelementptr inbounds nuw i8, ptr %4, i64 16
  %19 = load ptr, ptr %18, align 8
  %20 = tail call ptr @xstrdup(ptr noundef %19) #15
  %21 = getelementptr inbounds nuw i8, ptr %17, i64 16
  store ptr %20, ptr %21, align 8
  %22 = getelementptr inbounds nuw i8, ptr %4, i64 32
  %23 = load ptr, ptr %22, align 8
  %24 = tail call ptr @xstrdup(ptr noundef %23) #15
  %25 = getelementptr inbounds nuw i8, ptr %17, i64 32
  store ptr %24, ptr %25, align 8
  %26 = getelementptr inbounds nuw i8, ptr %4, i64 40
  %27 = load ptr, ptr %26, align 8
  %28 = tail call ptr @xstrdup(ptr noundef %27) #15
  %29 = getelementptr inbounds nuw i8, ptr %17, i64 40
  store ptr %28, ptr %29, align 8
  %30 = load ptr, ptr %6, align 8
  %31 = load i32, ptr %12, align 8
  %32 = zext i32 %31 to i64
  tail call void @bit_clear(ptr noundef %30, i64 noundef %32) #15
  %33 = getelementptr inbounds nuw i8, ptr %4, i64 72
  tail call void @slurm_xfree(ptr noundef nonnull %33) #15
  %34 = load ptr, ptr %6, align 8
  %35 = tail call ptr @bitmap2node_name(ptr noundef %34) #15
  store ptr %35, ptr %33, align 8
  %36 = load i32, ptr @node_record_count, align 4
  %37 = sext i32 %36 to i64
  %38 = tail call ptr @bit_alloc(i64 noundef %37) #15
  %39 = getelementptr inbounds nuw i8, ptr %17, i64 64
  store ptr %38, ptr %39, align 8
  %40 = load i32, ptr %12, align 8
  %41 = zext i32 %40 to i64
  tail call void @bit_set(ptr noundef %38, i64 noundef %41) #15
  %42 = getelementptr inbounds nuw i8, ptr %0, i64 272
  %43 = load ptr, ptr %42, align 8
  %44 = tail call ptr @xstrdup(ptr noundef %43) #15
  %45 = getelementptr inbounds nuw i8, ptr %17, i64 72
  store ptr %44, ptr %45, align 8
  store ptr %17, ptr %3, align 8
  br label %46

46:                                               ; preds = %16, %10, %5
  %.0 = phi ptr [ %17, %16 ], [ %4, %10 ], [ %4, %5 ]
  %47 = getelementptr inbounds nuw i8, ptr %1, i64 8
  %48 = load i16, ptr %47, align 8
  %49 = getelementptr inbounds nuw i8, ptr %.0, i64 4
  store i16 %48, ptr %49, align 4
  %50 = getelementptr inbounds nuw i8, ptr %1, i64 200
  %51 = load i16, ptr %50, align 8
  %52 = getelementptr inbounds nuw i8, ptr %.0, i64 96
  store i16 %51, ptr %52, align 8
  br label %53

53:                                               ; preds = %2, %46
  ret void
}